; Function Attrs: mustprogress uwtable
define void @_ZN32pxrInternal_v0_24__pxrReserved__37UsdUtils_ReadOnlyLocalizationDelegate28ProcessClipTemplateAssetPathERKNS_8TfRefPtrINS_8SdfLayerEEERKNS_9SdfHandleINS_11SdfPrimSpecEEERKNSt7__cxx1112basic_stringIcSt11char_traitsIcESaIcEEESI_St6vectorISG_SaISG_EE(ptr dead_on_unwind noalias writable sret(%"class.std::vector") align 8 %0, ptr noundef nonnull align 8 dereferenceable(96) %1, ptr noundef nonnull align 8 dereferenceable(8) %2, ptr nonnull readnone align 8 captures(none) %3, ptr nonnull readnone align 8 captures(none) %4, ptr noundef nonnull align 8 dereferenceable(32) %5, ptr noundef %6) unnamed_addr #0 align 2 personality ptr @__gxx_personality_v0 {
  %8 = alloca %"class.pxrInternal_v0_24__pxrReserved__::UsdUtilsDependencyInfo", align 8
  %9 = alloca %"class.pxrInternal_v0_24__pxrReserved__::UsdUtilsDependencyInfo", align 8
  call void @_ZNSt7__cxx1112basic_stringIcSt11char_traitsIcESaIcEEC1ERKS4_(ptr noundef nonnull align 8 dereferenceable(56) %9, ptr noundef nonnull align 8 dereferenceable(32) %5)
  %10 = getelementptr inbounds nuw i8, ptr %9, i64 32
  invoke void @_ZNSt6vectorINSt7__cxx1112basic_stringIcSt11char_traitsIcESaIcEEESaIS5_EEC2ERKS7_(ptr noundef nonnull align 8 dereferenceable(24) %10, ptr noundef nonnull align 8 dereferenceable(24) %6)
          to label %_ZN32pxrInternal_v0_24__pxrReserved__22UsdUtilsDependencyInfoC2ERKNSt7__cxx1112basic_stringIcSt11char_traitsIcESaIcEEERKSt6vectorIS6_SaIS6_EE.exit unwind label %11

common.resume:                                    ; preds = %43, %11
  %common.resume.op = phi { ptr, i32 } [ %12, %11 ], [ %.pn, %43 ]
  resume { ptr, i32 } %common.resume.op

11:                                               ; preds = %7
  %12 = landingpad { ptr, i32 }
          cleanup
  call void @_ZNSt7__cxx1112basic_stringIcSt11char_traitsIcESaIcEED1Ev(ptr noundef nonnull align 8 dereferenceable(56) %9) #19
  br label %common.resume

_ZN32pxrInternal_v0_24__pxrReserved__22UsdUtilsDependencyInfoC2ERKNSt7__cxx1112basic_stringIcSt11char_traitsIcESaIcEEERKSt6vectorIS6_SaIS6_EE.exit: ; preds = %7
  %13 = getelementptr inbounds nuw i8, ptr %1, i64 8
  invoke void @_ZN32pxrInternal_v0_24__pxrReserved__27UsdUtils_ProcessedPathCache16GetProcessedInfoERKNS_8TfRefPtrINS_8SdfLayerEEERKNS_22UsdUtilsDependencyInfoENS_23UsdUtils_DependencyTypeE(ptr dead_on_unwind nonnull writable sret(%"class.pxrInternal_v0_24__pxrReserved__::UsdUtilsDependencyInfo") align 8 %8, ptr noundef nonnull align 8 dereferenceable(88) %13, ptr noundef nonnull align 8 dereferenceable(8) %2, ptr noundef nonnull align 8 dereferenceable(56) %9, i32 noundef 3)
          to label %14 unwind label %39

14:                                               ; preds = %_ZN32pxrInternal_v0_24__pxrReserved__22UsdUtilsDependencyInfoC2ERKNSt7__cxx1112basic_stringIcSt11char_traitsIcESaIcEEERKSt6vectorIS6_SaIS6_EE.exit
  invoke fastcc void @_ZN32pxrInternal_v0_24__pxrReserved__L23_AllDependenciesForInfoB5cxx11ERKNS_22UsdUtilsDependencyInfoE(ptr dead_on_unwind noalias writable align 8 %0, ptr noundef nonnull align 8 dereferenceable(56) %8)
          to label %15 unwind label %41

15:                                               ; preds = %14
  %16 = getelementptr inbounds nuw i8, ptr %8, i64 32
  %17 = load ptr, ptr %16, align 8
  %18 = getelementptr inbounds nuw i8, ptr %8, i64 40
  %19 = load ptr, ptr %18, align 8
  %.not4.i.i.i.i.i = icmp eq ptr %17, %19
  br i1 %.not4.i.i.i.i.i, label %_ZSt8_DestroyIPNSt7__cxx1112basic_stringIcSt11char_traitsIcESaIcEEES5_EvT_S7_RSaIT0_E.exit.i.i, label %.lr.ph.i.i.i.i.i

.lr.ph.i.i.i.i.i:                                 ; preds = %15, %.lr.ph.i.i.i.i.i
  %.05.i.i.i.i.i = phi ptr [ %20, %.lr.ph.i.i.i.i.i ], [ %17, %15 ]
  call void @_ZNSt7__cxx1112basic_stringIcSt11char_traitsIcESaIcEED1Ev(ptr noundef nonnull align 8 dereferenceable(32) %.05.i.i.i.i.i) #19
  %20 = getelementptr inbounds nuw i8, ptr %.05.i.i.i.i.i, i64 32
  %.not.i.i.i.i.i = icmp eq ptr %20, %19
  br i1 %.not.i.i.i.i.i, label %_ZSt8_DestroyIPNSt7__cxx1112basic_stringIcSt11char_traitsIcESaIcEEES5_EvT_S7_RSaIT0_E.exitthread-pre-split.i.i, label %.lr.ph.i.i.i.i.i, !llvm.loop !7

_ZSt8_DestroyIPNSt7__cxx1112basic_stringIcSt11char_traitsIcESaIcEEES5_EvT_S7_RSaIT0_E.exitthread-pre-split.i.i: ; preds = %.lr.ph.i.i.i.i.i
  %.pr.i.i = load ptr, ptr %16, align 8
  br label %_ZSt8_DestroyIPNSt7__cxx1112basic_stringIcSt11char_traitsIcESaIcEEES5_EvT_S7_RSaIT0_E.exit.i.i

_ZSt8_DestroyIPNSt7__cxx1112basic_stringIcSt11char_traitsIcESaIcEEES5_EvT_S7_RSaIT0_E.exit.i.i: ; preds = %_ZSt8_DestroyIPNSt7__cxx1112basic_stringIcSt11char_traitsIcESaIcEEES5_EvT_S7_RSaIT0_E.exitthread-pre-split.i.i, %15
  %21 = phi ptr [ %.pr.i.i, %_ZSt8_DestroyIPNSt7__cxx1112basic_stringIcSt11char_traitsIcESaIcEEES5_EvT_S7_RSaIT0_E.exitthread-pre-split.i.i ], [ %17, %15 ]
  %.not.i.i.i.i = icmp eq ptr %21, null
  br i1 %.not.i.i.i.i, label %_ZN32pxrInternal_v0_24__pxrReserved__22UsdUtilsDependencyInfoD2Ev.exit, label %22

22:                                               ; preds = %_ZSt8_DestroyIPNSt7__cxx1112basic_stringIcSt11char_traitsIcESaIcEEES5_EvT_S7_RSaIT0_E.exit.i.i
  %23 = getelementptr inbounds nuw i8, ptr %8, i64 48
  %24 = load ptr, ptr %23, align 8
  %25 = ptrtoint ptr %24 to i64
  %26 = ptrtoint ptr %21 to i64
  %27 = sub i64 %25, %26
  call void @_ZdlPvm(ptr noundef nonnull %21, i64 noundef %27) #20
  br label %_ZN32pxrInternal_v0_24__pxrReserved__22UsdUtilsDependencyInfoD2Ev.exit

_ZN32pxrInternal_v0_24__pxrReserved__22UsdUtilsDependencyInfoD2Ev.exit: ; preds = %_ZSt8_DestroyIPNSt7__cxx1112basic_stringIcSt11char_traitsIcESaIcEEES5_EvT_S7_RSaIT0_E.exit.i.i, %22
  call void @_ZNSt7__cxx1112basic_stringIcSt11char_traitsIcESaIcEED1Ev(ptr noundef nonnull align 8 dereferenceable(56) %8) #19
  %28 = load ptr, ptr %10, align 8
  %29 = getelementptr inbounds nuw i8, ptr %9, i64 40
  %30 = load ptr, ptr %29, align 8
  %.not4.i.i.i.i.i6 = icmp eq ptr %28, %30
  br i1 %.not4.i.i.i.i.i6, label %_ZSt8_DestroyIPNSt7__cxx1112basic_stringIcSt11char_traitsIcESaIcEEES5_EvT_S7_RSaIT0_E.exit.i.i12, label %.lr.ph.i.i.i.i.i7

.lr.ph.i.i.i.i.i7:                                ; preds = %_ZN32pxrInternal_v0_24__pxrReserved__22UsdUtilsDependencyInfoD2Ev.exit, %.lr.ph.i.i.i.i.i7
  %.05.i.i.i.i.i8 = phi ptr [ %31, %.lr.ph.i.i.i.i.i7 ], [ %28, %_ZN32pxrInternal_v0_24__pxrReserved__22UsdUtilsDependencyInfoD2Ev.exit ]
  call void @_ZNSt7__cxx1112basic_stringIcSt11char_traitsIcESaIcEED1Ev(ptr noundef nonnull align 8 dereferenceable(32) %.05.i.i.i.i.i8) #19
  %31 = getelementptr inbounds nuw i8, ptr %.05.i.i.i.i.i8, i64 32
  %.not.i.i.i.i.i9 = icmp eq ptr %31, %30
  br i1 %.not.i.i.i.i.i9, label %_ZSt8_DestroyIPNSt7__cxx1112basic_stringIcSt11char_traitsIcESaIcEEES5_EvT_S7_RSaIT0_E.exitthread-pre-split.i.i10, label %.lr.ph.i.i.i.i.i7, !llvm.loop !7

_ZSt8_DestroyIPNSt7__cxx1112basic_stringIcSt11char_traitsIcESaIcEEES5_EvT_S7_RSaIT0_E.exitthread-pre-split.i.i10: ; preds = %.lr.ph.i.i.i.i.i7
  %.pr.i.i11 = load ptr, ptr %10, align 8
  br label %_ZSt8_DestroyIPNSt7__cxx1112basic_stringIcSt11char_traitsIcESaIcEEES5_EvT_S7_RSaIT0_E.exit.i.i12

_ZSt8_DestroyIPNSt7__cxx1112basic_stringIcSt11char_traitsIcESaIcEEES5_EvT_S7_RSaIT0_E.exit.i.i12: ; preds = %_ZSt8_DestroyIPNSt7__cxx1112basic_stringIcSt11char_traitsIcESaIcEEES5_EvT_S7_RSaIT0_E.exitthread-pre-split.i.i10, %_ZN32pxrInternal_v0_24__pxrReserved__22UsdUtilsDependencyInfoD2Ev.exit
  %32 = phi ptr [ %.pr.i.i11, %_ZSt8_DestroyIPNSt7__cxx1112basic_stringIcSt11char_traitsIcESaIcEEES5_EvT_S7_RSaIT0_E.exitthread-pre-split.i.i10 ], [ %28, %_ZN32pxrInternal_v0_24__pxrReserved__22UsdUtilsDependencyInfoD2Ev.exit ]
  %.not.i.i.i.i13 = icmp eq ptr %32, null
  br i1 %.not.i.i.i.i13, label %_ZN32pxrInternal_v0_24__pxrReserved__22UsdUtilsDependencyInfoD2Ev.exit14, label %33

33:                                               ; preds = %_ZSt8_DestroyIPNSt7__cxx1112basic_stringIcSt11char_traitsIcESaIcEEES5_EvT_S7_RSaIT0_E.exit.i.i12
  %34 = getelementptr inbounds nuw i8, ptr %9, i64 48
  %35 = load ptr, ptr %34, align 8
  %36 = ptrtoint ptr %35 to i64
  %37 = ptrtoint ptr %32 to i64
  %38 = sub i64 %36, %37
  call void @_ZdlPvm(ptr noundef nonnull %32, i64 noundef %38) #20
  br label %_ZN32pxrInternal_v0_24__pxrReserved__22UsdUtilsDependencyInfoD2Ev.exit14

_ZN32pxrInternal_v0_24__pxrReserved__22UsdUtilsDependencyInfoD2Ev.exit14: ; preds = %_ZSt8_DestroyIPNSt7__cxx1112basic_stringIcSt11char_traitsIcESaIcEEES5_EvT_S7_RSaIT0_E.exit.i.i12, %33
  call void @_ZNSt7__cxx1112basic_stringIcSt11char_traitsIcESaIcEED1Ev(ptr noundef nonnull align 8 dereferenceable(56) %9) #19
  ret void

39:                                               ; preds = %_ZN32pxrInternal_v0_24__pxrReserved__22UsdUtilsDependencyInfoC2ERKNSt7__cxx1112basic_stringIcSt11char_traitsIcESaIcEEERKSt6vectorIS6_SaIS6_EE.exit
  %40 = landingpad { ptr, i32 }
          cleanup
  br label %43

41:                                               ; preds = %14
  %42 = landingpad { ptr, i32 }
          cleanup
  call void @_ZN32pxrInternal_v0_24__pxrReserved__22UsdUtilsDependencyInfoD2Ev(ptr noundef nonnull align 8 dereferenceable(56) %8) #19
  br label %43

43:                                               ; preds = %41, %39
  %.pn = phi { ptr, i32 } [ %42, %41 ], [ %40, %39 ]
  call void @_ZN32pxrInternal_v0_24__pxrReserved__22UsdUtilsDependencyInfoD2Ev(ptr noundef nonnull align 8 dereferenceable(56) %9) #19
  br label %common.resume
}